target datalayout = "e-m:e-p270:32:32-p271:32:32-p272:64:64-i64:64-i128:128-f80:128-n8:16:32:64-S128"
target triple = "x86_64-pc-linux-gnu"

; Function Attrs: mustprogress uwtable
define noundef i32 @_Z5SolvePKdS0_Pdi(ptr noundef %0, ptr noundef %1, ptr noundef %2, i32 noundef %3) #3 {
  %5 = alloca i32, align 4
  %6 = alloca ptr, align 8
  %7 = alloca ptr, align 8
  %8 = alloca ptr, align 8
  %9 = alloca i32, align 4
  %10 = alloca i32, align 4
  %11 = alloca i32, align 4
  %12 = alloca i32, align 4
  %13 = alloca double, align 8
  %14 = alloca double, align 8
  %15 = alloca ptr, align 8
  %16 = alloca ptr, align 8
  %17 = alloca ptr, align 8
  %18 = alloca ptr, align 8
  %19 = alloca double, align 8
  %20 = alloca i32, align 4
  store ptr %0, ptr %6, align 8
  store ptr %1, ptr %7, align 8
  store ptr %2, ptr %8, align 8
  store i32 %3, ptr %9, align 4
  %21 = load i32, ptr %9, align 4
  %22 = sext i32 %21 to i64
  %23 = call { i64, i1 } @llvm.umul.with.overflow.i64(i64 %22, i64 4)
  %24 = extractvalue { i64, i1 } %23, 1
  %25 = extractvalue { i64, i1 } %23, 0
  %26 = select i1 %24, i64 -1, i64 %25
  %27 = call noalias noundef nonnull ptr @_Znam(i64 noundef %26) #7
  store ptr %27, ptr %15, align 8
  %28 = load i32, ptr %9, align 4
  %29 = sext i32 %28 to i64
  %30 = call { i64, i1 } @llvm.umul.with.overflow.i64(i64 %29, i64 4)
  %31 = extractvalue { i64, i1 } %30, 1
  %32 = extractvalue { i64, i1 } %30, 0
  %33 = select i1 %31, i64 -1, i64 %32
  %34 = call noalias noundef nonnull ptr @_Znam(i64 noundef %33) #7
  store ptr %34, ptr %16, align 8
  %35 = load i32, ptr %9, align 4
  %36 = load i32, ptr %9, align 4
  %37 = mul nsw i32 %35, %36
  %38 = sext i32 %37 to i64
  %39 = call { i64, i1 } @llvm.umul.with.overflow.i64(i64 %38, i64 8)
  %40 = extractvalue { i64, i1 } %39, 1
  %41 = extractvalue { i64, i1 } %39, 0
  %42 = select i1 %40, i64 -1, i64 %41
  %43 = call noalias noundef nonnull ptr @_Znam(i64 noundef %42) #7
  store ptr %43, ptr %17, align 8
  %44 = load i32, ptr %9, align 4
  %45 = sext i32 %44 to i64
  %46 = call { i64, i1 } @llvm.umul.with.overflow.i64(i64 %45, i64 8)
  %47 = extractvalue { i64, i1 } %46, 1
  %48 = extractvalue { i64, i1 } %46, 0
  %49 = select i1 %47, i64 -1, i64 %48
  %50 = call noalias noundef nonnull ptr @_Znam(i64 noundef %49) #7
  store ptr %50, ptr %18, align 8
  store i32 0, ptr %10, align 4
  br label %51

51:                                               ; preds = %67, %4
  %52 = load i32, ptr %10, align 4
  %53 = load i32, ptr %9, align 4
  %54 = load i32, ptr %9, align 4
  %55 = mul nsw i32 %53, %54
  %56 = icmp slt i32 %52, %55
  br i1 %56, label %57, label %70

57:                                               ; preds = %51
  %58 = load ptr, ptr %6, align 8
  %59 = load i32, ptr %10, align 4
  %60 = sext i32 %59 to i64
  %61 = getelementptr inbounds double, ptr %58, i64 %60
  %62 = load double, ptr %61, align 8
  %63 = load ptr, ptr %17, align 8
  %64 = load i32, ptr %10, align 4
  %65 = sext i32 %64 to i64
  %66 = getelementptr inbounds double, ptr %63, i64 %65
  store double %62, ptr %66, align 8
  br label %67

67:                                               ; preds = %57
  %68 = load i32, ptr %10, align 4
  %69 = add nsw i32 %68, 1
  store i32 %69, ptr %10, align 4
  br label %51, !llvm.loop !5

70:                                               ; preds = %51
  store i32 0, ptr %10, align 4
  br label %71

71:                                               ; preds = %89, %70
  %72 = load i32, ptr %10, align 4
  %73 = load i32, ptr %9, align 4
  %74 = icmp slt i32 %72, %73
  br i1 %74, label %75, label %92

75:                                               ; preds = %71
  %76 = load ptr, ptr %7, align 8
  %77 = load i32, ptr %10, align 4
  %78 = sext i32 %77 to i64
  %79 = getelementptr inbounds double, ptr %76, i64 %78
  %80 = load double, ptr %79, align 8
  %81 = load ptr, ptr %18, align 8
  %82 = load i32, ptr %10, align 4
  %83 = sext i32 %82 to i64
  %84 = getelementptr inbounds double, ptr %81, i64 %83
  store double %80, ptr %84, align 8
  %85 = load ptr, ptr %16, align 8
  %86 = load i32, ptr %10, align 4
  %87 = sext i32 %86 to i64
  %88 = getelementptr inbounds i32, ptr %85, i64 %87
  store i32 0, ptr %88, align 4
  br label %89

89:                                               ; preds = %75
  %90 = load i32, ptr %10, align 4
  %91 = add nsw i32 %90, 1
  store i32 %91, ptr %10, align 4
  br label %71, !llvm.loop !7

92:                                               ; preds = %71
  store i32 0, ptr %10, align 4
  br label %93

93:                                               ; preds = %282, %92
  %94 = load i32, ptr %10, align 4
  %95 = load i32, ptr %9, align 4
  %96 = icmp slt i32 %94, %95
  br i1 %96, label %97, label %285

97:                                               ; preds = %93
  store double -1.000000e+00, ptr %14, align 8
  store i32 -1, ptr %12, align 4
  store i32 0, ptr %11, align 4
  br label %98

98:                                               ; preds = %147, %97
  %99 = load i32, ptr %11, align 4
  %100 = load i32, ptr %9, align 4
  %101 = icmp slt i32 %99, %100
  br i1 %101, label %102, label %150

102:                                              ; preds = %98
  %103 = load ptr, ptr %16, align 8
  %104 = load i32, ptr %11, align 4
  %105 = sext i32 %104 to i64
  %106 = getelementptr inbounds i32, ptr %103, i64 %105
  %107 = load i32, ptr %106, align 4
  %108 = icmp ne i32 %107, 0
  br i1 %108, label %109, label %110

109:                                              ; preds = %102
  br label %147

110:                                              ; preds = %102
  %111 = load ptr, ptr %17, align 8
  %112 = load i32, ptr %11, align 4
  %113 = load i32, ptr %9, align 4
  %114 = mul nsw i32 %112, %113
  %115 = load i32, ptr %10, align 4
  %116 = add nsw i32 %114, %115
  %117 = sext i32 %116 to i64
  %118 = getelementptr inbounds double, ptr %111, i64 %117
  %119 = load double, ptr %118, align 8
  %120 = fcmp une double %119, 0.000000e+00
  br i1 %120, label %121, label %146

121:                                              ; preds = %110
  %122 = load ptr, ptr %17, align 8
  %123 = load i32, ptr %11, align 4
  %124 = load i32, ptr %9, align 4
  %125 = mul nsw i32 %123, %124
  %126 = load i32, ptr %10, align 4
  %127 = add nsw i32 %125, %126
  %128 = sext i32 %127 to i64
  %129 = getelementptr inbounds double, ptr %122, i64 %128
  %130 = load double, ptr %129, align 8
  %131 = call double @llvm.fabs.f64(double %130)
  %132 = load double, ptr %14, align 8
  %133 = fcmp ogt double %131, %132
  br i1 %133, label %134, label %146

134:                                              ; preds = %121
  %135 = load ptr, ptr %17, align 8
  %136 = load i32, ptr %11, align 4
  %137 = load i32, ptr %9, align 4
  %138 = mul nsw i32 %136, %137
  %139 = load i32, ptr %10, align 4
  %140 = add nsw i32 %138, %139
  %141 = sext i32 %140 to i64
  %142 = getelementptr inbounds double, ptr %135, i64 %141
  %143 = load double, ptr %142, align 8
  %144 = call double @llvm.fabs.f64(double %143)
  store double %144, ptr %14, align 8
  %145 = load i32, ptr %11, align 4
  store i32 %145, ptr %12, align 4
  br label %146

146:                                              ; preds = %134, %121, %110
  br label %147

147:                                              ; preds = %146, %109
  %148 = load i32, ptr %11, align 4
  %149 = add nsw i32 %148, 1
  store i32 %149, ptr %11, align 4
  br label %98, !llvm.loop !8

150:                                              ; preds = %98
  %151 = load i32, ptr %12, align 4
  %152 = icmp eq i32 %151, -1
  br i1 %152, label %153, label %170

153:                                              ; preds = %150
  %154 = load ptr, ptr %15, align 8
  %155 = icmp eq ptr %154, null
  br i1 %155, label %157, label %156

156:                                              ; preds = %153
  call void @_ZdaPv(ptr noundef %154) #8
  br label %157

157:                                              ; preds = %156, %153
  %158 = load ptr, ptr %18, align 8
  %159 = icmp eq ptr %158, null
  br i1 %159, label %161, label %160

160:                                              ; preds = %157
  call void @_ZdaPv(ptr noundef %158) #8
  br label %161

161:                                              ; preds = %160, %157
  %162 = load ptr, ptr %17, align 8
  %163 = icmp eq ptr %162, null
  br i1 %163, label %165, label %164

164:                                              ; preds = %161
  call void @_ZdaPv(ptr noundef %162) #8
  br label %165

165:                                              ; preds = %164, %161
  %166 = load ptr, ptr %16, align 8
  %167 = icmp eq ptr %166, null
  br i1 %167, label %169, label %168

168:                                              ; preds = %165
  call void @_ZdaPv(ptr noundef %166) #8
  br label %169

169:                                              ; preds = %168, %165
  store i32 0, ptr %5, align 4
  br label %324

170:                                              ; preds = %150
  %171 = load i32, ptr %12, align 4
  %172 = load ptr, ptr %15, align 8
  %173 = load i32, ptr %10, align 4
  %174 = sext i32 %173 to i64
  %175 = getelementptr inbounds i32, ptr %172, i64 %174
  store i32 %171, ptr %175, align 4
  %176 = load ptr, ptr %16, align 8
  %177 = load i32, ptr %12, align 4
  %178 = sext i32 %177 to i64
  %179 = getelementptr inbounds i32, ptr %176, i64 %178
  store i32 1, ptr %179, align 4
  %180 = load ptr, ptr %17, align 8
  %181 = load i32, ptr %12, align 4
  %182 = load i32, ptr %9, align 4
  %183 = mul nsw i32 %181, %182
  %184 = load i32, ptr %10, align 4
  %185 = add nsw i32 %183, %184
  %186 = sext i32 %185 to i64
  %187 = getelementptr inbounds double, ptr %180, i64 %186
  %188 = load double, ptr %187, align 8
  store double %188, ptr %13, align 8
  store i32 0, ptr %11, align 4
  br label %189

189:                                              ; preds = %205, %170
  %190 = load i32, ptr %11, align 4
  %191 = load i32, ptr %9, align 4
  %192 = icmp slt i32 %190, %191
  br i1 %192, label %193, label %208

193:                                              ; preds = %189
  %194 = load double, ptr %13, align 8
  %195 = load ptr, ptr %17, align 8
  %196 = load i32, ptr %12, align 4
  %197 = load i32, ptr %9, align 4
  %198 = mul nsw i32 %196, %197
  %199 = load i32, ptr %11, align 4
  %200 = add nsw i32 %198, %199
  %201 = sext i32 %200 to i64
  %202 = getelementptr inbounds double, ptr %195, i64 %201
  %203 = load double, ptr %202, align 8
  %204 = fdiv double %203, %194
  store double %204, ptr %202, align 8
  br label %205

205:                                              ; preds = %193
  %206 = load i32, ptr %11, align 4
  %207 = add nsw i32 %206, 1
  store i32 %207, ptr %11, align 4
  br label %189, !llvm.loop !9

208:                                              ; preds = %189
  %209 = load double, ptr %13, align 8
  %210 = load ptr, ptr %18, align 8
  %211 = load i32, ptr %12, align 4
  %212 = sext i32 %211 to i64
  %213 = getelementptr inbounds double, ptr %210, i64 %212
  %214 = load double, ptr %213, align 8
  %215 = fdiv double %214, %209
  store double %215, ptr %213, align 8
  store i32 0, ptr %11, align 4
  br label %216

216:                                              ; preds = %278, %208
  %217 = load i32, ptr %11, align 4
  %218 = load i32, ptr %9, align 4
  %219 = icmp slt i32 %217, %218
  br i1 %219, label %220, label %281

220:                                              ; preds = %216
  %221 = load i32, ptr %11, align 4
  %222 = load i32, ptr %12, align 4
  %223 = icmp eq i32 %221, %222
  br i1 %223, label %224, label %225

224:                                              ; preds = %220
  br label %278

225:                                              ; preds = %220
  %226 = load ptr, ptr %17, align 8
  %227 = load i32, ptr %11, align 4
  %228 = load i32, ptr %9, align 4
  %229 = mul nsw i32 %227, %228
  %230 = load i32, ptr %10, align 4
  %231 = add nsw i32 %229, %230
  %232 = sext i32 %231 to i64
  %233 = getelementptr inbounds double, ptr %226, i64 %232
  %234 = load double, ptr %233, align 8
  store double %234, ptr %19, align 8
  store i32 0, ptr %20, align 4
  br label %235

235:                                              ; preds = %261, %225
  %236 = load i32, ptr %20, align 4
  %237 = load i32, ptr %9, align 4
  %238 = icmp slt i32 %236, %237
  br i1 %238, label %239, label %264

239:                                              ; preds = %235
  %240 = load ptr, ptr %17, align 8
  %241 = load i32, ptr %12, align 4
  %242 = load i32, ptr %9, align 4
  %243 = mul nsw i32 %241, %242
  %244 = load i32, ptr %20, align 4
  %245 = add nsw i32 %243, %244
  %246 = sext i32 %245 to i64
  %247 = getelementptr inbounds double, ptr %240, i64 %246
  %248 = load double, ptr %247, align 8
  %249 = load double, ptr %19, align 8
  %250 = load ptr, ptr %17, align 8
  %251 = load i32, ptr %11, align 4
  %252 = load i32, ptr %9, align 4
  %253 = mul nsw i32 %251, %252
  %254 = load i32, ptr %20, align 4
  %255 = add nsw i32 %253, %254
  %256 = sext i32 %255 to i64
  %257 = getelementptr inbounds double, ptr %250, i64 %256
  %258 = load double, ptr %257, align 8
  %259 = fneg double %248
  %260 = call double @llvm.fmuladd.f64(double %259, double %249, double %258)
  store double %260, ptr %257, align 8
  br label %261

261:                                              ; preds = %239
  %262 = load i32, ptr %20, align 4
  %263 = add nsw i32 %262, 1
  store i32 %263, ptr %20, align 4
  br label %235, !llvm.loop !10

264:                                              ; preds = %235
  %265 = load ptr, ptr %18, align 8
  %266 = load i32, ptr %12, align 4
  %267 = sext i32 %266 to i64
  %268 = getelementptr inbounds double, ptr %265, i64 %267
  %269 = load double, ptr %268, align 8
  %270 = load double, ptr %19, align 8
  %271 = load ptr, ptr %18, align 8
  %272 = load i32, ptr %11, align 4
  %273 = sext i32 %272 to i64
  %274 = getelementptr inbounds double, ptr %271, i64 %273
  %275 = load double, ptr %274, align 8
  %276 = fneg double %269
  %277 = call double @llvm.fmuladd.f64(double %276, double %270, double %275)
  store double %277, ptr %274, align 8
  br label %278

278:                                              ; preds = %264, %224
  %279 = load i32, ptr %11, align 4
  %280 = add nsw i32 %279, 1
  store i32 %280, ptr %11, align 4
  br label %216, !llvm.loop !11

281:                                              ; preds = %216
  br label %282

282:                                              ; preds = %281
  %283 = load i32, ptr %10, align 4
  %284 = add nsw i32 %283, 1
  store i32 %284, ptr %10, align 4
  br label %93, !llvm.loop !12

285:                                              ; preds = %93
  store i32 0, ptr %10, align 4
  br label %286

286:                                              ; preds = %304, %285
  %287 = load i32, ptr %10, align 4
  %288 = load i32, ptr %9, align 4
  %289 = icmp slt i32 %287, %288
  br i1 %289, label %290, label %307

290:                                              ; preds = %286
  %291 = load ptr, ptr %18, align 8
  %292 = load ptr, ptr %15, align 8
  %293 = load i32, ptr %10, align 4
  %294 = sext i32 %293 to i64
  %295 = getelementptr inbounds i32, ptr %292, i64 %294
  %296 = load i32, ptr %295, align 4
  %297 = sext i32 %296 to i64
  %298 = getelementptr inbounds double, ptr %291, i64 %297
  %299 = load double, ptr %298, align 8
  %300 = load ptr, ptr %8, align 8
  %301 = load i32, ptr %10, align 4
  %302 = sext i32 %301 to i64
  %303 = getelementptr inbounds double, ptr %300, i64 %302
  store double %299, ptr %303, align 8
  br label %304

304:                                              ; preds = %290
  %305 = load i32, ptr %10, align 4
  %306 = add nsw i32 %305, 1
  store i32 %306, ptr %10, align 4
  br label %286, !llvm.loop !13

307:                                              ; preds = %286
  %308 = load ptr, ptr %15, align 8
  %309 = icmp eq ptr %308, null
  br i1 %309, label %311, label %310

310:                                              ; preds = %307
  call void @_ZdaPv(ptr noundef %308) #8
  br label %311

311:                                              ; preds = %310, %307
  %312 = load ptr, ptr %18, align 8
  %313 = icmp eq ptr %312, null
  br i1 %313, label %315, label %314

314:                                              ; preds = %311
  call void @_ZdaPv(ptr noundef %312) #8
  br label %315

315:                                              ; preds = %314, %311
  %316 = load ptr, ptr %17, align 8
  %317 = icmp eq ptr %316, null
  br i1 %317, label %319, label %318

318:                                              ; preds = %315
  call void @_ZdaPv(ptr noundef %316) #8
  br label %319

319:                                              ; preds = %318, %315
  %320 = load ptr, ptr %16, align 8
  %321 = icmp eq ptr %320, null
  br i1 %321, label %323, label %322

322:                                              ; preds = %319
  call void @_ZdaPv(ptr noundef %320) #8
  br label %323

323:                                              ; preds = %322, %319
  store i32 1, ptr %5, align 4
  br label %324

324:                                              ; preds = %323, %169
  %325 = load i32, ptr %5, align 4
  ret i32 %325
}